ccopy_reg
_reconstructor
p1
(csklearn.linear_model.base
LinearRegression
p2
c__builtin__
object
p3
NtRp4
(dp5
S'normalize'
p6
I00
sS'n_jobs'
p7
I1
sS'rank_'
p8
I1
sS'fit_intercept'
p9
I01
sS'_residues'
p10
cnumpy.core.multiarray
_reconstruct
p11
(cnumpy
ndarray
p12
(I0
tS'b'
tRp13
(I1
(I1
tcnumpy
dtype
p14
(S'f8'
I0
I1
tRp15
(I3
S'<'
NNNI-1
I-1
I0
tbI00
S'5\xdf)\\W\x9a\xda@'
tbsS'coef_'
p16
g11
(g12
(I0
tS'b'
tRp17
(I1
(I1
I1
tg15
I00
S'0\xff\xb52vO\x02@'
tbsS'_sklearn_version'
p18
S'0.19.1'
p19
sS'copy_X'
p20
I01
sS'intercept_'
p21
g11
(g12
(I0
tS'b'
tRp22
(I1
(I1
tg15
I00
S'\xe88\xeeB\xa7\xd1g\xc0'
tbsS'singular_'
p23
g11
(g12
(I0
tS'b'
tRp24
(I1
(I1
tg15
I00
S'\xf4\xc3\xc97\xf9\x9es@'
tbsb.ccopy_reg
_reconstructor
p1
(csklearn.linear_model.base
LinearRegression
p2
c__builtin__
object
p3
NtRp4
(dp5
S'normalize'
p6
I00
sS'n_jobs'
p7
I1
sS'rank_'
p8
I1
sS'fit_intercept'
p9
I01
sS'_residues'
p10
cnumpy.core.multiarray
_reconstruct
p11
(cnumpy
ndarray
p12
(I0
tS'b'
tRp13
(I1
(I1
tcnumpy
dtype
p14
(S'f8'
I0
I1
tRp15
(I3
S'<'
NNNI-1
I-1
I0
tbI00
S'\x83,\xd0\x8b\xadEy@'
tbsS'coef_'
p16
g11
(g12
(I0
tS'b'
tRp17
(I1
(I1
I1
tg15
I00
S'\x98p\xf19\xe5\x0f\x04@'
tbsS'_sklearn_version'
p18
S'0.19.1'
p19
sS'copy_X'
p20
I01
sS'intercept_'
p21
g11
(g12
(I0
tS'b'
tRp22
(I1
(I1
tg15
I00
S'\xec\xa5B\xf9\xb3U\\\xc0'
tbsS'singular_'
p23
g11
(g12
(I0
tS'b'
tRp24
(I1
(I1
tg15
I00
S'l\t\xa0\xe8\xb68q@'
tbsb.