(dp1
S'blue'
p2
(dp3
S'Erode'
p4
I5
sS'H_max'
p5
I179
sS'Dilate'
p6
I5
sS'H_min'
p7
I179
sS'S_max'
p8
I255
sS'S_min'
p9
I255
sS'V_max'
p10
I255
sS'V_min'
p11
I255
sS'blur'
p12
I5
sS'open:1 / close:0'
p13
I1
sS'gamma'
p14
F0.99999999999999989
ssS'purple'
p15
(dp16
g4
I5
sg5
I179
sg6
I5
sg7
I179
sg8
I255
sg9
I255
sg10
I255
sg11
I255
sg12
I5
sg13
I1
sg14
F0.99999999999999989
ssS'green'
p17
(dp18
g4
I5
sg5
I179
sg6
I5
sg7
I179
sg8
I255
sg9
I255
sg10
I255
sg11
I255
sg12
I5
sg13
I1
sg14
F0.99999999999999989
ssS'yellow'
p19
(dp20
g4
I5
sg5
I179
sg6
I5
sg7
I179
sg8
I255
sg9
I255
sg10
I255
sg11
I255
sg12
I5
sg13
I1
sg14
F0.99999999999999989
ssS'red'
p21
(dp22
g4
I0
sg5
I179
sg6
I0
sg7
I0
sg8
I255
sg9
I63
sg10
I255
sg11
I91
sg12
I5
sg13
I0
sg14
F0.99999999999999989
ss.