(dp1
S'blue'
p2
(dp3
S'Erode'
p4
I0
sS'H_max'
p5
I124
sS'Dilate'
p6
I0
sS'H_min'
p7
I85
sS'S_max'
p8
I247
sS'S_min'
p9
I203
sS'V_max'
p10
I255
sS'V_min'
p11
I190
sS'blur'
p12
I3
sS'open:1 / close:0'
p13
I0
sS'gamma'
p14
F4.0000000000000018
ssS'purple'
p15
(dp16
g4
I0
sg5
I144
sg6
I0
sg7
I117
sg8
I255
sg9
I0
sg10
I255
sg11
I48
sg12
I3
sg13
I0
sg14
F4.0000000000000018
ssS'green'
p17
(dp18
g4
I0
sg5
I102
sg6
I0
sg7
I68
sg8
I118
sg9
I36
sg10
I65
sg11
I20
sg12
I3
sg13
I0
sg14
F2.8000000000000007
ssS'yellow'
p19
(dp20
g4
I0
sg5
I71
sg6
I0
sg7
I22
sg8
I255
sg9
I0
sg10
I255
sg11
I190
sg12
I3
sg13
I0
sg14
F4.0000000000000018
ssS'red'
p21
(dp22
g4
I0
sg5
I4
sg6
I0
sg7
I0
sg8
I255
sg9
I239
sg10
I255
sg11
I190
sg12
I3
sg13
I0
sg14
F4.0000000000000018
ss.