(dp1
S'blue'
p2
(dp3
S'Erode'
p4
I0
sS'H_max'
p5
I120
sS'Dilate'
p6
I0
sS'H_min'
p7
I83
sS'S_max'
p8
I140
sS'S_min'
p9
I63
sS'V_max'
p10
I255
sS'V_min'
p11
I255
sS'blur'
p12
I0
sS'open:1 / close:0'
p13
I0
sS'gamma'
p14
F0.99999999999999989
ssS'green'
p15
(dp16
g4
I0
sg5
I101
sg6
I0
sg7
I79
sg8
I61
sg9
I0
sg10
I167
sg11
I95
sg12
I0
sg13
I0
sg14
F0.99999999999999989
ssS'yellow'
p17
(dp18
g4
I0
sg5
I31
sg6
I0
sg7
I23
sg8
I153
sg9
I0
sg10
I255
sg11
I156
sg12
I0
sg13
I0
sg14
F0.99999999999999989
ssS'red'
p19
(dp20
g4
I0
sg5
I12
sg6
I0
sg7
I0
sg8
I255
sg9
I82
sg10
I255
sg11
I255
sg12
I0
sg13
I0
sg14
F0.99999999999999989
ss.