(dp1
S'blue'
p2
(dp3
S'Erode'
p4
I4
sS'H_max'
p5
I128
sS'Dilate'
p6
I10
sS'H_min'
p7
I90
sS'S_max'
p8
I255
sS'S_min'
p9
I176
sS'V_max'
p10
I255
sS'V_min'
p11
I114
sS'blur'
p12
I10
sS'open:1 / close:0'
p13
I1
sS'gamma'
p14
F0.99999999999999922
ssS'purple'
p15
(dp16
g4
I10
sg5
I179
sg6
I10
sg7
I179
sg8
I255
sg9
I255
sg10
I255
sg11
I255
sg12
I10
sg13
I1
sg14
F0.99999999999999922
ssS'green'
p17
(dp18
g4
I0
sg5
I100
sg6
I0
sg7
I51
sg8
I255
sg9
I195
sg10
I211
sg11
I0
sg12
I10
sg13
I1
sg14
F2
ssS'yellow'
p19
(dp20
g4
I0
sg5
I48
sg6
I9
sg7
I13
sg8
I255
sg9
I162
sg10
I255
sg11
I122
sg12
I10
sg13
I1
sg14
F4.6999999999999993
ssS'red'
p21
(dp22
g4
I0
sg5
I169
sg6
I0
sg7
I39
sg8
I255
sg9
I184
sg10
I212
sg11
I33
sg12
I10
sg13
I0
sg14
F-0.099999999999999978
ss.